; Function Attrs: mustprogress nounwind uwtable
define internal void @_ZN12_GLOBAL__N_111CVMCAdapter11getTypeNameB5cxx11EN4llvm8codeview9TypeIndexE(ptr dead_on_unwind noalias nonnull writable sret(%"class.std::__cxx11::basic_string") align 8 %0, ptr noundef nonnull readonly align 8 captures(none) dereferenceable(24) %1, i32 %2) unnamed_addr #0 align 2 {
  %4 = alloca %"struct.std::__cxx11::basic_string<char>::__sv_wrapper", align 8
  %5 = alloca %"struct.std::__cxx11::basic_string<char>::__sv_wrapper", align 8
  %6 = alloca %"class.std::__cxx11::basic_string", align 8
  %7 = alloca %"class.std::allocator.262", align 1
  %8 = alloca %"class.std::__cxx11::basic_string", align 8
  %9 = alloca %"class.std::allocator.262", align 1
  tail call void @_ZNSt7__cxx1112basic_stringIcSt11char_traitsIcESaIcEEC1Ev(ptr noundef nonnull align 8 dereferenceable(32) %0) #23
  %10 = icmp eq i32 %2, 0
  br i1 %10, label %39, label %11

11:                                               ; preds = %3
  %12 = icmp ult i32 %2, 4096
  br i1 %12, label %13, label %23

13:                                               ; preds = %11
  %14 = tail call { ptr, i64 } @_ZN4llvm8codeview9TypeIndex14simpleTypeNameES1_(i32 %2) #23
  %15 = extractvalue { ptr, i64 } %14, 0
  %16 = extractvalue { ptr, i64 } %14, 1
  call void @_ZNSaIcEC1Ev(ptr noundef nonnull align 1 dereferenceable(1) %7) #23
  call void @llvm.lifetime.start.p0(i64 16, ptr nonnull %5)
  %17 = call { i64, ptr } @_ZNSt7__cxx1112basic_stringIcSt11char_traitsIcESaIcEE17_S_to_string_viewESt17basic_string_viewIcS2_E(i64 %16, ptr %15) #23
  %18 = extractvalue { i64, ptr } %17, 0
  %19 = extractvalue { i64, ptr } %17, 1
  call void @_ZNSt7__cxx1112basic_stringIcSt11char_traitsIcESaIcEE12__sv_wrapperC1ESt17basic_string_viewIcS2_E(ptr noundef nonnull align 8 dereferenceable(16) %5, i64 %18, ptr %19) #23
  %20 = load i64, ptr %5, align 8
  %21 = getelementptr inbounds nuw i8, ptr %5, i64 8
  %22 = load ptr, ptr %21, align 8
  call void @_ZNSt7__cxx1112basic_stringIcSt11char_traitsIcESaIcEEC2ENS4_12__sv_wrapperERKS3_(ptr noundef nonnull align 8 dereferenceable(32) %6, i64 %20, ptr %22, ptr noundef nonnull align 1 dereferenceable(1) %7) #23
  call void @llvm.lifetime.end.p0(i64 16, ptr nonnull %5)
  br label %.sink.split

23:                                               ; preds = %11
  %24 = getelementptr inbounds nuw i8, ptr %1, i64 16
  %25 = load ptr, ptr %24, align 8
  %26 = load ptr, ptr %25, align 8
  %27 = getelementptr inbounds nuw i8, ptr %26, i64 40
  %28 = load ptr, ptr %27, align 8
  %29 = tail call { ptr, i64 } %28(ptr noundef nonnull align 8 dereferenceable(8) %25, i32 %2) #23
  %30 = extractvalue { ptr, i64 } %29, 0
  %31 = extractvalue { ptr, i64 } %29, 1
  call void @_ZNSaIcEC1Ev(ptr noundef nonnull align 1 dereferenceable(1) %9) #23
  call void @llvm.lifetime.start.p0(i64 16, ptr nonnull %4)
  %32 = call { i64, ptr } @_ZNSt7__cxx1112basic_stringIcSt11char_traitsIcESaIcEE17_S_to_string_viewESt17basic_string_viewIcS2_E(i64 %31, ptr %30) #23
  %33 = extractvalue { i64, ptr } %32, 0
  %34 = extractvalue { i64, ptr } %32, 1
  call void @_ZNSt7__cxx1112basic_stringIcSt11char_traitsIcESaIcEE12__sv_wrapperC1ESt17basic_string_viewIcS2_E(ptr noundef nonnull align 8 dereferenceable(16) %4, i64 %33, ptr %34) #23
  %35 = load i64, ptr %4, align 8
  %36 = getelementptr inbounds nuw i8, ptr %4, i64 8
  %37 = load ptr, ptr %36, align 8
  call void @_ZNSt7__cxx1112basic_stringIcSt11char_traitsIcESaIcEEC2ENS4_12__sv_wrapperERKS3_(ptr noundef nonnull align 8 dereferenceable(32) %8, i64 %35, ptr %37, ptr noundef nonnull align 1 dereferenceable(1) %9) #23
  call void @llvm.lifetime.end.p0(i64 16, ptr nonnull %4)
  br label %.sink.split

.sink.split:                                      ; preds = %13, %23
  %.sink10 = phi ptr [ %8, %23 ], [ %6, %13 ]
  %.sink = phi ptr [ %9, %23 ], [ %7, %13 ]
  %38 = call noundef nonnull align 8 dereferenceable(32) ptr @_ZNSt7__cxx1112basic_stringIcSt11char_traitsIcESaIcEEaSEOS4_(ptr noundef nonnull align 8 dereferenceable(32) %0, ptr noundef nonnull align 8 dereferenceable(32) %.sink10) #23
  call void @_ZNSt7__cxx1112basic_stringIcSt11char_traitsIcESaIcEED1Ev(ptr noundef nonnull align 8 dereferenceable(32) %.sink10) #23
  call void @_ZNSaIcED1Ev(ptr noundef nonnull align 1 dereferenceable(1) %.sink) #23
  br label %39

39:                                               ; preds = %.sink.split, %3
  ret void
}